target datalayout = "e-m:e-p270:32:32-p271:32:32-p272:64:64-i64:64-i128:128-f80:128-n8:16:32:64-S128"
target triple = "x86_64-unknown-linux-gnu"

%"class.google::protobuf::compiler::java::ImmutableFieldLiteGenerator" = type { ptr }
%"class.absl::lts_20230802::flat_hash_map" = type { %"class.absl::lts_20230802::container_internal::raw_hash_map" }
%"class.absl::lts_20230802::container_internal::raw_hash_map" = type { %"class.absl::lts_20230802::container_internal::raw_hash_set" }
%"class.absl::lts_20230802::container_internal::raw_hash_set" = type { %"class.absl::lts_20230802::container_internal::CompressedTuple" }
%"class.absl::lts_20230802::container_internal::CompressedTuple" = type { %"struct.absl::lts_20230802::container_internal::internal_compressed_tuple::CompressedTupleImpl" }
%"struct.absl::lts_20230802::container_internal::internal_compressed_tuple::CompressedTupleImpl" = type { %"struct.absl::lts_20230802::container_internal::internal_compressed_tuple::Storage" }
%"struct.absl::lts_20230802::container_internal::internal_compressed_tuple::Storage" = type { %"class.absl::lts_20230802::container_internal::CommonFields" }
%"class.absl::lts_20230802::container_internal::CommonFields" = type { ptr, ptr, i64, %"class.absl::lts_20230802::container_internal::CompressedTuple.0" }
%"class.absl::lts_20230802::container_internal::CompressedTuple.0" = type { %"struct.absl::lts_20230802::container_internal::internal_compressed_tuple::CompressedTupleImpl.1" }
%"struct.absl::lts_20230802::container_internal::internal_compressed_tuple::CompressedTupleImpl.1" = type { %"struct.absl::lts_20230802::container_internal::internal_compressed_tuple::Storage.2" }
%"struct.absl::lts_20230802::container_internal::internal_compressed_tuple::Storage.2" = type { i64 }
%"class.std::basic_string_view" = type { i64, ptr }
%"class.google::protobuf::FieldDescriptor" = type { %"class.google::protobuf::internal::SymbolBase", i8, i8, i8, i32, ptr, ptr, ptr, ptr, %union.anon.67, %union.anon.68, ptr, ptr, ptr, %union.anon.69 }
%"class.google::protobuf::internal::SymbolBase" = type { i8 }
%union.anon.67 = type { ptr }
%union.anon.68 = type { ptr }
%union.anon.69 = type { i64 }
%"class.google::protobuf::compiler::java::RepeatedImmutableMessageFieldLiteGenerator" = type { %"class.google::protobuf::compiler::java::ImmutableFieldLiteGenerator", ptr, %"class.absl::lts_20230802::flat_hash_map", ptr, ptr }

@.str.57 = private unnamed_addr constant [26 x i8] c"\22$name$_\22,\0A$type$.class,\0A\00", align 1

; Function Attrs: mustprogress nounwind uwtable
define linkonce_odr hidden noundef i64 @_ZNSt11char_traitsIcE6lengthEPKc(ptr noundef %__s) #5 comdat align 2 {
entry:
  %__s.addr = alloca ptr, align 8
  store ptr %__s, ptr %__s.addr, align 8
  %0 = load ptr, ptr %__s.addr, align 8
  %call = call i64 @strlen(ptr noundef %0) #3
  ret i64 %call
}

; Function Attrs: mustprogress nounwind uwtable
define linkonce_odr hidden void @_ZNSt17basic_string_viewIcSt11char_traitsIcEEC2EPKc(ptr noundef nonnull align 8 dereferenceable(16) %this, ptr noundef nonnull %__str) unnamed_addr #5 comdat align 2 {
entry:
  %this.addr = alloca ptr, align 8
  %__str.addr = alloca ptr, align 8
  store ptr %this, ptr %this.addr, align 8
  store ptr %__str, ptr %__str.addr, align 8
  %this1 = load ptr, ptr %this.addr, align 8
  %_M_len = getelementptr inbounds %"class.std::basic_string_view", ptr %this1, i32 0, i32 0
  %0 = load ptr, ptr %__str.addr, align 8
  %call = call noundef i64 @_ZNSt11char_traitsIcE6lengthEPKc(ptr noundef %0)
  store i64 %call, ptr %_M_len, align 8
  %_M_str = getelementptr inbounds %"class.std::basic_string_view", ptr %this1, i32 0, i32 1
  %1 = load ptr, ptr %__str.addr, align 8
  store ptr %1, ptr %_M_str, align 8
  ret void
}

; Function Attrs: mustprogress uwtable
define linkonce_odr hidden void @_ZN6google8protobuf8compiler4java27WriteIntToUtf16CharSequenceEiPSt6vectorItSaItEE(i32 noundef %value, ptr noundef %output) #4 comdat {
entry:
  %value.addr = alloca i32, align 4
  %output.addr = alloca ptr, align 8
  store i32 %value, ptr %value.addr, align 4
  store ptr %output, ptr %output.addr, align 8
  %0 = load i32, ptr %value.addr, align 4
  %1 = load ptr, ptr %output.addr, align 8
  call void @_ZN6google8protobuf8compiler4java30WriteUInt32ToUtf16CharSequenceEjPSt6vectorItSaItEE(i32 noundef %0, ptr noundef %1)
  ret void
}

; Function Attrs: mustprogress nounwind uwtable
define linkonce_odr hidden noundef i32 @_ZNK6google8protobuf15FieldDescriptor6numberEv(ptr noundef nonnull align 8 dereferenceable(88) %this) #5 comdat align 2 {
entry:
  %this.addr = alloca ptr, align 8
  store ptr %this, ptr %this.addr, align 8
  %this1 = load ptr, ptr %this.addr, align 8
  %number_ = getelementptr inbounds %"class.google::protobuf::FieldDescriptor", ptr %this1, i32 0, i32 4
  %0 = load i32, ptr %number_, align 4
  ret i32 %0
}

; Function Attrs: mustprogress uwtable
define hidden void @_ZNK6google8protobuf8compiler4java42RepeatedImmutableMessageFieldLiteGenerator17GenerateFieldInfoEPNS0_2io7PrinterEPSt6vectorItSaItEE(ptr noundef nonnull align 8 dereferenceable(64) %this, ptr noundef %printer, ptr noundef %output) unnamed_addr #4 align 2 {
entry:
  %this.addr = alloca ptr, align 8
  %printer.addr = alloca ptr, align 8
  %output.addr = alloca ptr, align 8
  %agg.tmp = alloca %"class.std::basic_string_view", align 8
  store ptr %this, ptr %this.addr, align 8
  store ptr %printer, ptr %printer.addr, align 8
  store ptr %output, ptr %output.addr, align 8
  %this1 = load ptr, ptr %this.addr, align 8
  %descriptor_ = getelementptr inbounds %"class.google::protobuf::compiler::java::RepeatedImmutableMessageFieldLiteGenerator", ptr %this1, i32 0, i32 1
  %0 = load ptr, ptr %descriptor_, align 8
  %call = call noundef i32 @_ZNK6google8protobuf15FieldDescriptor6numberEv(ptr noundef nonnull align 8 dereferenceable(88) %0)
  %1 = load ptr, ptr %output.addr, align 8
  call void @_ZN6google8protobuf8compiler4java27WriteIntToUtf16CharSequenceEiPSt6vectorItSaItEE(i32 noundef %call, ptr noundef %1)
  %descriptor_2 = getelementptr inbounds %"class.google::protobuf::compiler::java::RepeatedImmutableMessageFieldLiteGenerator", ptr %this1, i32 0, i32 1
  %2 = load ptr, ptr %descriptor_2, align 8
  %call3 = call noundef i32 @_ZN6google8protobuf8compiler4java28GetExperimentalJavaFieldTypeEPKNS0_15FieldDescriptorE(ptr noundef %2)
  %3 = load ptr, ptr %output.addr, align 8
  call void @_ZN6google8protobuf8compiler4java27WriteIntToUtf16CharSequenceEiPSt6vectorItSaItEE(i32 noundef %call3, ptr noundef %3)
  %4 = load ptr, ptr %printer.addr, align 8
  %variables_ = getelementptr inbounds %"class.google::protobuf::compiler::java::RepeatedImmutableMessageFieldLiteGenerator", ptr %this1, i32 0, i32 2
  call void @_ZNSt17basic_string_viewIcSt11char_traitsIcEEC2EPKc(ptr noundef nonnull align 8 dereferenceable(16) %agg.tmp, ptr noundef @.str.57) #3
  %5 = getelementptr inbounds { i64, ptr }, ptr %agg.tmp, i32 0, i32 0
  %6 = load i64, ptr %5, align 8
  %7 = getelementptr inbounds { i64, ptr }, ptr %agg.tmp, i32 0, i32 1
  %8 = load ptr, ptr %7, align 8
  call void @_ZN6google8protobuf2io7Printer5PrintIN4absl12lts_2023080213flat_hash_mapISt17basic_string_viewIcSt11char_traitsIcEENSt7__cxx1112basic_stringIcS9_SaIcEEENS5_18container_internal10StringHashENSF_8StringEqESaISt4pairIKSA_SE_EEEEEEvRKT_SA_(ptr noundef nonnull align 8 dereferenceable(256) %4, ptr noundef nonnull align 8 dereferenceable(32) %variables_, i64 %6, ptr %8)
  ret void
}